target datalayout = "e-m:e-p270:32:32-p271:32:32-p272:64:64-i64:64-i128:128-f80:128-n8:16:32:64-S128"
target triple = "x86_64-pc-linux-gnu"

%union.pthread_mutex_t = type { %struct.__pthread_mutex_s }
%struct.__pthread_mutex_s = type { i32, i32, i32, i32, i32, i16, i16, %struct.__pthread_internal_list }
%struct.__pthread_internal_list = type { ptr, ptr }

@cr_mutex = internal global %union.pthread_mutex_t zeroinitializer, align 8
@.str.1 = private unnamed_addr constant [29 x i8] c"%s: pthread_mutex_lock(): %m\00", align 1
@cr_ptr = internal global ptr null, align 8
@.str.2 = private unnamed_addr constant [31 x i8] c"%s: pthread_mutex_unlock(): %m\00", align 1
@__func__.select_p_select_nodeinfo_set = private unnamed_addr constant [29 x i8] c"select_p_select_nodeinfo_set\00", align 1

; Function Attrs: nounwind uwtable
define dso_local i32 @select_p_select_nodeinfo_set(ptr noundef %0) #0 {
  %2 = alloca ptr, align 8
  %3 = alloca i32, align 4
  %4 = alloca i32, align 4
  store ptr %0, ptr %2, align 8
  br label %5

5:                                                ; preds = %1
  call void @llvm.lifetime.start.p0(i64 4, ptr %3) #8
  %6 = call i32 @pthread_mutex_lock(ptr noundef @cr_mutex) #8
  store i32 %6, ptr %3, align 4
  %7 = load i32, ptr %3, align 4
  %8 = icmp ne i32 %7, 0
  br i1 %8, label %9, label %12

9:                                                ; preds = %5
  %10 = load i32, ptr %3, align 4
  %11 = call ptr @__errno_location() #9
  store i32 %10, ptr %11, align 4
  call void (ptr, ...) @slurm_fatal_abort(ptr noundef @.str.1, ptr noundef @__func__.select_p_select_nodeinfo_set) #10
  unreachable

12:                                               ; preds = %5
  call void @llvm.lifetime.end.p0(i64 4, ptr %3) #8
  br label %13

13:                                               ; preds = %12
  %14 = load ptr, ptr @cr_ptr, align 8
  %15 = icmp eq ptr %14, null
  br i1 %15, label %16, label %17

16:                                               ; preds = %13
  call void @_init_node_cr()
  br label %17

17:                                               ; preds = %16, %13
  br label %18

18:                                               ; preds = %17
  call void @llvm.lifetime.start.p0(i64 4, ptr %4) #8
  %19 = call i32 @pthread_mutex_unlock(ptr noundef @cr_mutex) #8
  store i32 %19, ptr %4, align 4
  %20 = load i32, ptr %4, align 4
  %21 = icmp ne i32 %20, 0
  br i1 %21, label %22, label %25

22:                                               ; preds = %18
  %23 = load i32, ptr %4, align 4
  %24 = call ptr @__errno_location() #9
  store i32 %23, ptr %24, align 4
  call void (ptr, ...) @slurm_fatal_abort(ptr noundef @.str.2, ptr noundef @__func__.select_p_select_nodeinfo_set) #10
  unreachable

25:                                               ; preds = %18
  call void @llvm.lifetime.end.p0(i64 4, ptr %4) #8
  br label %26

26:                                               ; preds = %25
  ret i32 0
}