; Function Attrs: nounwind uwtable
define dso_local noundef i32 @select_p_select_nodeinfo_set(ptr noundef readnone captures(none) %0) local_unnamed_addr #0 {
  %2 = tail call i32 @pthread_mutex_lock(ptr noundef nonnull @cr_mutex) #11
  %.not = icmp eq i32 %2, 0
  br i1 %.not, label %5, label %3

3:                                                ; preds = %1
  %4 = tail call ptr @__errno_location() #12
  store i32 %2, ptr %4, align 4
  tail call void (ptr, ...) @slurm_fatal_abort(ptr noundef nonnull @.str.1, ptr noundef nonnull @__func__.select_p_select_nodeinfo_set) #13
  unreachable

5:                                                ; preds = %1
  %6 = load ptr, ptr @cr_ptr, align 8
  %7 = icmp eq ptr %6, null
  br i1 %7, label %8, label %9

8:                                                ; preds = %5
  tail call fastcc void @_init_node_cr()
  br label %9

9:                                                ; preds = %5, %8
  %10 = tail call i32 @pthread_mutex_unlock(ptr noundef nonnull @cr_mutex) #11
  %.not5 = icmp eq i32 %10, 0
  br i1 %.not5, label %13, label %11

11:                                               ; preds = %9
  %12 = tail call ptr @__errno_location() #12
  store i32 %10, ptr %12, align 4
  tail call void (ptr, ...) @slurm_fatal_abort(ptr noundef nonnull @.str.2, ptr noundef nonnull @__func__.select_p_select_nodeinfo_set) #13
  unreachable

13:                                               ; preds = %9
  ret i32 0
}